target datalayout = "e-m:e-p270:32:32-p271:32:32-p272:64:64-i64:64-i128:128-f80:128-n8:16:32:64-S128"
target triple = "x86_64-pc-linux-gnu"

%"struct.pbrt::ThreadStatsState" = type { %"class.pbrt::Point2", i8, %"class.std::chrono::time_point", %"class.pbrt::PixelStatsAccumulator" }
%"class.pbrt::Point2" = type { %"class.pbrt::Tuple2" }
%"class.pbrt::Tuple2" = type { i32, i32 }
%"class.std::chrono::time_point" = type { %"class.std::chrono::duration" }
%"class.std::chrono::duration" = type { i64 }
%"class.pbrt::PixelStatsAccumulator" = type { ptr }

@_ZN4pbrt17pixelStatsEnabledE = dso_local global i8 0, align 1
@_ZN4pbrtL16threadStatsStateE = internal thread_local global %"struct.pbrt::ThreadStatsState" zeroinitializer, align 8
@.str = private unnamed_addr constant [117 x i8] c"generated/home/dtcxzyw/WorkSpace/Projects/compilers/llvm-opt-benchmark/bench/pbrt-v4/pbrt-v4/src/pbrt/util/stats.cpp\00", align 1
@.str.6 = private unnamed_addr constant [17 x i8] c"Check failed: %s\00", align 1
@.str.7 = private unnamed_addr constant [33 x i8] c"threadStatsState.active == false\00", align 1
@_ZTHN4pbrtL16threadStatsStateE = internal alias void (), ptr @__tls_init

; Function Attrs: uwtable
define internal noundef ptr @_ZTWN4pbrtL16threadStatsStateE() #6 {
  call void @_ZTHN4pbrtL16threadStatsStateE()
  %1 = call align 8 ptr @llvm.threadlocal.address.p0(ptr align 8 @_ZN4pbrtL16threadStatsStateE)
  ret ptr %1
}

; Function Attrs: mustprogress uwtable
define dso_local void @_ZN4pbrt21StatsReportPixelStartENS_6Point2IiEE(i64 %0) #1 {
  %2 = alloca %"class.pbrt::Point2", align 4
  %3 = alloca %"class.std::chrono::time_point", align 8
  %4 = getelementptr inbounds nuw %"class.pbrt::Point2", ptr %2, i32 0, i32 0
  store i64 %0, ptr %4, align 4
  %5 = load i8, ptr @_ZN4pbrt17pixelStatsEnabledE, align 1, !tbaa !21, !range !23, !noundef !24
  %6 = trunc i8 %5 to i1
  br i1 %6, label %8, label %7

7:                                                ; preds = %1
  br label %27

8:                                                ; preds = %1
  %9 = call ptr @_ZTWN4pbrtL16threadStatsStateE()
  %10 = getelementptr inbounds nuw %"struct.pbrt::ThreadStatsState", ptr %9, i32 0, i32 1
  %11 = load i8, ptr %10, align 8, !tbaa !65, !range !23, !noundef !24
  %12 = trunc i8 %11 to i1
  %13 = zext i1 %12 to i32
  %14 = icmp eq i32 %13, 0
  br i1 %14, label %17, label %15

15:                                               ; preds = %8
  call void @_ZN4pbrt8LogFatalIJRA33_KcEEEvNS_8LogLevelEPS1_iS5_DpOT_(i32 noundef 2, ptr noundef @.str, i32 noundef 61, ptr noundef @.str.6, ptr noundef nonnull align 1 dereferenceable(33) @.str.7) #22
  unreachable

16:                                               ; No predecessors!
  br label %17

17:                                               ; preds = %16, %8
  %18 = call ptr @_ZTWN4pbrtL16threadStatsStateE()
  %19 = getelementptr inbounds nuw %"struct.pbrt::ThreadStatsState", ptr %18, i32 0, i32 1
  store i8 1, ptr %19, align 8, !tbaa !65
  %20 = call ptr @_ZTWN4pbrtL16threadStatsStateE()
  %21 = getelementptr inbounds nuw %"struct.pbrt::ThreadStatsState", ptr %20, i32 0, i32 0
  call void @llvm.memcpy.p0.p0.i64(ptr align 8 %21, ptr align 4 %2, i64 8, i1 false)
  call void @llvm.lifetime.start.p0(i64 8, ptr %3) #5
  %22 = call i64 @_ZNSt6chrono3_V212steady_clock3nowEv() #5
  %23 = getelementptr inbounds nuw %"class.std::chrono::time_point", ptr %3, i32 0, i32 0
  %24 = getelementptr inbounds nuw %"class.std::chrono::duration", ptr %23, i32 0, i32 0
  store i64 %22, ptr %24, align 8
  %25 = call ptr @_ZTWN4pbrtL16threadStatsStateE()
  %26 = getelementptr inbounds nuw %"struct.pbrt::ThreadStatsState", ptr %25, i32 0, i32 2
  call void @llvm.memcpy.p0.p0.i64(ptr align 8 %26, ptr align 8 %3, i64 8, i1 false), !tbaa.struct !70
  call void @llvm.lifetime.end.p0(i64 8, ptr %3) #5
  br label %27

27:                                               ; preds = %17, %7
  ret void
}