; Function Attrs: uwtable
define dso_local void @_ZN4pbrt21StatsReportPixelStartENS_6Point2IiEE(i64 %0) local_unnamed_addr #4 {
  %2 = load i8, ptr @_ZN4pbrt17pixelStatsEnabledE, align 1, !tbaa !40, !range !42, !noundef !43
  %3 = trunc nuw i8 %2 to i1
  br i1 %3, label %4, label %27

4:                                                ; preds = %1
  %5 = load i8, ptr @__tls_guard, align 1
  %6 = icmp eq i8 %5, 0
  br i1 %6, label %7, label %_ZTWN4pbrtL16threadStatsStateE.exit, !prof !44

7:                                                ; preds = %4
  store i8 1, ptr @__tls_guard, align 1
  %8 = tail call ptr @llvm.invariant.start.p0(i64 1, ptr nonnull @__tls_guard)
  tail call fastcc void @__cxx_global_var_init.2()
  br label %_ZTWN4pbrtL16threadStatsStateE.exit

_ZTWN4pbrtL16threadStatsStateE.exit:              ; preds = %4, %7
  %9 = tail call noundef nonnull align 8 ptr @llvm.threadlocal.address.p0(ptr align 8 @_ZN4pbrtL16threadStatsStateE)
  %10 = getelementptr inbounds nuw i8, ptr %9, i64 8
  %11 = load i8, ptr %10, align 8, !tbaa !86, !range !42, !noundef !43
  %12 = icmp eq i8 %11, 0
  br i1 %12, label %14, label %13

13:                                               ; preds = %_ZTWN4pbrtL16threadStatsStateE.exit
  tail call void @_ZN4pbrt8LogFatalIJRA33_KcEEEvNS_8LogLevelEPS1_iS5_DpOT_(i32 noundef 2, ptr noundef nonnull @.str, i32 noundef 61, ptr noundef nonnull @.str.6, ptr noundef nonnull align 1 dereferenceable(33) @.str.7) #28
  unreachable

14:                                               ; preds = %_ZTWN4pbrtL16threadStatsStateE.exit
  %15 = load i8, ptr @__tls_guard, align 1
  %16 = icmp eq i8 %15, 0
  br i1 %16, label %_ZTWN4pbrtL16threadStatsStateE.exit2, label %_ZTWN4pbrtL16threadStatsStateE.exit2.thread, !prof !44

_ZTWN4pbrtL16threadStatsStateE.exit2.thread:      ; preds = %14
  store i8 1, ptr %10, align 8, !tbaa !86
  br label %_ZTWN4pbrtL16threadStatsStateE.exit3

_ZTWN4pbrtL16threadStatsStateE.exit2:             ; preds = %14
  store i8 1, ptr @__tls_guard, align 1
  %17 = tail call ptr @llvm.invariant.start.p0(i64 1, ptr nonnull @__tls_guard)
  tail call fastcc void @__cxx_global_var_init.2()
  %.pr = load i8, ptr @__tls_guard, align 1
  store i8 1, ptr %10, align 8, !tbaa !86
  %18 = icmp eq i8 %.pr, 0
  br i1 %18, label %19, label %_ZTWN4pbrtL16threadStatsStateE.exit3, !prof !90

19:                                               ; preds = %_ZTWN4pbrtL16threadStatsStateE.exit2
  store i8 1, ptr @__tls_guard, align 1
  %20 = tail call ptr @llvm.invariant.start.p0(i64 1, ptr nonnull @__tls_guard)
  tail call fastcc void @__cxx_global_var_init.2()
  br label %_ZTWN4pbrtL16threadStatsStateE.exit3

_ZTWN4pbrtL16threadStatsStateE.exit3:             ; preds = %_ZTWN4pbrtL16threadStatsStateE.exit2.thread, %_ZTWN4pbrtL16threadStatsStateE.exit2, %19
  store i64 %0, ptr %9, align 8
  %21 = tail call i64 @_ZNSt6chrono3_V212steady_clock3nowEv() #27
  %22 = load i8, ptr @__tls_guard, align 1
  %23 = icmp eq i8 %22, 0
  br i1 %23, label %24, label %_ZTWN4pbrtL16threadStatsStateE.exit4, !prof !44

24:                                               ; preds = %_ZTWN4pbrtL16threadStatsStateE.exit3
  store i8 1, ptr @__tls_guard, align 1
  %25 = tail call ptr @llvm.invariant.start.p0(i64 1, ptr nonnull @__tls_guard)
  tail call fastcc void @__cxx_global_var_init.2()
  br label %_ZTWN4pbrtL16threadStatsStateE.exit4

_ZTWN4pbrtL16threadStatsStateE.exit4:             ; preds = %_ZTWN4pbrtL16threadStatsStateE.exit3, %24
  %26 = getelementptr inbounds nuw i8, ptr %9, i64 16
  store i64 %21, ptr %26, align 8, !tbaa !91
  br label %27

27:                                               ; preds = %1, %_ZTWN4pbrtL16threadStatsStateE.exit4
  ret void
}